target datalayout = "e-m:e-p270:32:32-p271:32:32-p272:64:64-i64:64-i128:128-f80:128-n8:16:32:64-S128"
target triple = "x86_64-pc-linux-gnu"

%struct.php_url = type { ptr, ptr, ptr, ptr, i16, ptr, ptr, ptr }
%struct._zend_string = type { %struct._zend_refcounted_h, i64, i64, [1 x i8] }
%struct._zend_refcounted_h = type { i32, %union.anon }
%union.anon = type { i32 }

@.str.10 = private unnamed_addr constant [10 x i8] c"DELE %s\0D\0A\00", align 1
@.str.39 = private unnamed_addr constant [2 x i8] c"r\00", align 1
@.str.46 = private unnamed_addr constant [24 x i8] c"Unable to connect to %s\00", align 1
@.str.47 = private unnamed_addr constant [28 x i8] c"Invalid path provided in %s\00", align 1
@.str.48 = private unnamed_addr constant [24 x i8] c"Error Deleting file: %s\00", align 1

; Function Attrs: inlinehint nounwind uwtable
define internal i32 @get_ftp_result(ptr noundef %0, ptr noundef %1, i64 noundef %2) #4 {
  %4 = alloca ptr, align 8
  %5 = alloca ptr, align 8
  %6 = alloca i64, align 8
  store ptr %0, ptr %4, align 8, !tbaa !17
  store ptr %1, ptr %5, align 8, !tbaa !9
  store i64 %2, ptr %6, align 8, !tbaa !21
  %7 = load ptr, ptr %5, align 8, !tbaa !9
  %8 = getelementptr inbounds i8, ptr %7, i64 0
  store i8 0, ptr %8, align 1, !tbaa !25
  br label %9

9:                                                ; preds = %66, %3
  %10 = load ptr, ptr %4, align 8, !tbaa !17
  %11 = load ptr, ptr %5, align 8, !tbaa !9
  %12 = load i64, ptr %6, align 8, !tbaa !21
  %13 = sub i64 %12, 1
  %14 = call ptr @_php_stream_get_line(ptr noundef %10, ptr noundef %11, i64 noundef %13, ptr noundef null)
  %15 = icmp ne ptr %14, null
  br i1 %15, label %16, label %64

16:                                               ; preds = %9
  %17 = call ptr @__ctype_b_loc() #13
  %18 = load ptr, ptr %17, align 8, !tbaa !64
  %19 = load ptr, ptr %5, align 8, !tbaa !9
  %20 = getelementptr inbounds i8, ptr %19, i64 0
  %21 = load i8, ptr %20, align 1, !tbaa !25
  %22 = sext i8 %21 to i32
  %23 = sext i32 %22 to i64
  %24 = getelementptr inbounds i16, ptr %18, i64 %23
  %25 = load i16, ptr %24, align 2, !tbaa !40
  %26 = zext i16 %25 to i32
  %27 = and i32 %26, 2048
  %28 = icmp ne i32 %27, 0
  br i1 %28, label %29, label %61

29:                                               ; preds = %16
  %30 = call ptr @__ctype_b_loc() #13
  %31 = load ptr, ptr %30, align 8, !tbaa !64
  %32 = load ptr, ptr %5, align 8, !tbaa !9
  %33 = getelementptr inbounds i8, ptr %32, i64 1
  %34 = load i8, ptr %33, align 1, !tbaa !25
  %35 = sext i8 %34 to i32
  %36 = sext i32 %35 to i64
  %37 = getelementptr inbounds i16, ptr %31, i64 %36
  %38 = load i16, ptr %37, align 2, !tbaa !40
  %39 = zext i16 %38 to i32
  %40 = and i32 %39, 2048
  %41 = icmp ne i32 %40, 0
  br i1 %41, label %42, label %61

42:                                               ; preds = %29
  %43 = call ptr @__ctype_b_loc() #13
  %44 = load ptr, ptr %43, align 8, !tbaa !64
  %45 = load ptr, ptr %5, align 8, !tbaa !9
  %46 = getelementptr inbounds i8, ptr %45, i64 2
  %47 = load i8, ptr %46, align 1, !tbaa !25
  %48 = sext i8 %47 to i32
  %49 = sext i32 %48 to i64
  %50 = getelementptr inbounds i16, ptr %44, i64 %49
  %51 = load i16, ptr %50, align 2, !tbaa !40
  %52 = zext i16 %51 to i32
  %53 = and i32 %52, 2048
  %54 = icmp ne i32 %53, 0
  br i1 %54, label %55, label %61

55:                                               ; preds = %42
  %56 = load ptr, ptr %5, align 8, !tbaa !9
  %57 = getelementptr inbounds i8, ptr %56, i64 3
  %58 = load i8, ptr %57, align 1, !tbaa !25
  %59 = sext i8 %58 to i32
  %60 = icmp eq i32 %59, 32
  br label %61

61:                                               ; preds = %55, %42, %29, %16
  %62 = phi i1 [ false, %42 ], [ false, %29 ], [ false, %16 ], [ %60, %55 ]
  %63 = xor i1 %62, true
  br label %64

64:                                               ; preds = %61, %9
  %65 = phi i1 [ false, %9 ], [ %63, %61 ]
  br i1 %65, label %66, label %67

66:                                               ; preds = %64
  br label %9

67:                                               ; preds = %64
  %68 = load ptr, ptr %5, align 8, !tbaa !9
  %69 = call i64 @strtol(ptr noundef %68, ptr noundef null, i32 noundef 10) #11
  %70 = trunc i64 %69 to i32
  ret i32 %70
}

; Function Attrs: nounwind uwtable
define internal i32 @php_stream_ftp_unlink(ptr noundef %0, ptr noundef %1, i32 noundef %2, ptr noundef %3) #0 {
  %5 = alloca i32, align 4
  %6 = alloca ptr, align 8
  %7 = alloca ptr, align 8
  %8 = alloca i32, align 4
  %9 = alloca ptr, align 8
  %10 = alloca ptr, align 8
  %11 = alloca ptr, align 8
  %12 = alloca i32, align 4
  %13 = alloca [512 x i8], align 16
  %14 = alloca i32, align 4
  store ptr %0, ptr %6, align 8, !tbaa !4
  store ptr %1, ptr %7, align 8, !tbaa !9
  store i32 %2, ptr %8, align 4, !tbaa !11
  store ptr %3, ptr %9, align 8, !tbaa !15
  call void @llvm.lifetime.start.p0(i64 8, ptr %10) #11
  store ptr null, ptr %10, align 8, !tbaa !17
  call void @llvm.lifetime.start.p0(i64 8, ptr %11) #11
  store ptr null, ptr %11, align 8, !tbaa !19
  call void @llvm.lifetime.start.p0(i64 4, ptr %12) #11
  call void @llvm.lifetime.start.p0(i64 512, ptr %13) #11
  %15 = load ptr, ptr %6, align 8, !tbaa !4
  %16 = load ptr, ptr %7, align 8, !tbaa !9
  %17 = load ptr, ptr %9, align 8, !tbaa !15
  %18 = call ptr @php_ftp_fopen_connect(ptr noundef %15, ptr noundef %16, ptr noundef @.str.39, i32 noundef 0, ptr noundef null, ptr noundef %17, ptr noundef null, ptr noundef %11, ptr noundef null, ptr noundef null)
  store ptr %18, ptr %10, align 8, !tbaa !17
  %19 = load ptr, ptr %10, align 8, !tbaa !17
  %20 = icmp ne ptr %19, null
  br i1 %20, label %28, label %21

21:                                               ; preds = %4
  %22 = load i32, ptr %8, align 4, !tbaa !11
  %23 = and i32 %22, 8
  %24 = icmp ne i32 %23, 0
  br i1 %24, label %25, label %27

25:                                               ; preds = %21
  %26 = load ptr, ptr %7, align 8, !tbaa !9
  call void (ptr, i32, ptr, ...) @php_error_docref(ptr noundef null, i32 noundef 2, ptr noundef @.str.46, ptr noundef %26)
  br label %27

27:                                               ; preds = %25, %21
  br label %67

28:                                               ; preds = %4
  %29 = load ptr, ptr %11, align 8, !tbaa !19
  %30 = getelementptr inbounds nuw %struct.php_url, ptr %29, i32 0, i32 5
  %31 = load ptr, ptr %30, align 8, !tbaa !30
  %32 = icmp eq ptr %31, null
  br i1 %32, label %33, label %40

33:                                               ; preds = %28
  %34 = load i32, ptr %8, align 4, !tbaa !11
  %35 = and i32 %34, 8
  %36 = icmp ne i32 %35, 0
  br i1 %36, label %37, label %39

37:                                               ; preds = %33
  %38 = load ptr, ptr %7, align 8, !tbaa !9
  call void (ptr, i32, ptr, ...) @php_error_docref(ptr noundef null, i32 noundef 2, ptr noundef @.str.47, ptr noundef %38)
  br label %39

39:                                               ; preds = %37, %33
  br label %67

40:                                               ; preds = %28
  %41 = load ptr, ptr %10, align 8, !tbaa !17
  %42 = load ptr, ptr %11, align 8, !tbaa !19
  %43 = getelementptr inbounds nuw %struct.php_url, ptr %42, i32 0, i32 5
  %44 = load ptr, ptr %43, align 8, !tbaa !30
  %45 = getelementptr inbounds nuw %struct._zend_string, ptr %44, i32 0, i32 3
  %46 = getelementptr inbounds [1 x i8], ptr %45, i64 0, i64 0
  %47 = call i64 (ptr, ptr, ...) @_php_stream_printf(ptr noundef %41, ptr noundef @.str.10, ptr noundef %46)
  %48 = load ptr, ptr %10, align 8, !tbaa !17
  %49 = getelementptr inbounds [512 x i8], ptr %13, i64 0, i64 0
  %50 = call i32 @get_ftp_result(ptr noundef %48, ptr noundef %49, i64 noundef 512)
  store i32 %50, ptr %12, align 4, !tbaa !11
  %51 = load i32, ptr %12, align 4, !tbaa !11
  %52 = icmp slt i32 %51, 200
  br i1 %52, label %56, label %53

53:                                               ; preds = %40
  %54 = load i32, ptr %12, align 4, !tbaa !11
  %55 = icmp sgt i32 %54, 299
  br i1 %55, label %56, label %63

56:                                               ; preds = %53, %40
  %57 = load i32, ptr %8, align 4, !tbaa !11
  %58 = and i32 %57, 8
  %59 = icmp ne i32 %58, 0
  br i1 %59, label %60, label %62

60:                                               ; preds = %56
  %61 = getelementptr inbounds [512 x i8], ptr %13, i64 0, i64 0
  call void (ptr, i32, ptr, ...) @php_error_docref(ptr noundef null, i32 noundef 2, ptr noundef @.str.48, ptr noundef %61)
  br label %62

62:                                               ; preds = %60, %56
  br label %67

63:                                               ; preds = %53
  %64 = load ptr, ptr %11, align 8, !tbaa !19
  call void @php_url_free(ptr noundef %64)
  %65 = load ptr, ptr %10, align 8, !tbaa !17
  %66 = call i32 @_php_stream_free(ptr noundef %65, i32 noundef 3)
  store i32 1, ptr %5, align 4
  store i32 1, ptr %14, align 4
  br label %79

67:                                               ; preds = %62, %39, %27
  %68 = load ptr, ptr %11, align 8, !tbaa !19
  %69 = icmp ne ptr %68, null
  br i1 %69, label %70, label %72

70:                                               ; preds = %67
  %71 = load ptr, ptr %11, align 8, !tbaa !19
  call void @php_url_free(ptr noundef %71)
  br label %72

72:                                               ; preds = %70, %67
  %73 = load ptr, ptr %10, align 8, !tbaa !17
  %74 = icmp ne ptr %73, null
  br i1 %74, label %75, label %78

75:                                               ; preds = %72
  %76 = load ptr, ptr %10, align 8, !tbaa !17
  %77 = call i32 @_php_stream_free(ptr noundef %76, i32 noundef 3)
  br label %78

78:                                               ; preds = %75, %72
  store i32 0, ptr %5, align 4
  store i32 1, ptr %14, align 4
  br label %79

79:                                               ; preds = %78, %63
  call void @llvm.lifetime.end.p0(i64 512, ptr %13) #11
  call void @llvm.lifetime.end.p0(i64 4, ptr %12) #11
  call void @llvm.lifetime.end.p0(i64 8, ptr %11) #11
  call void @llvm.lifetime.end.p0(i64 8, ptr %10) #11
  %80 = load i32, ptr %5, align 4
  ret i32 %80
}